	.file	"mainErr.cpp"
	.text
.Ltext0:
	.cfi_sections	.debug_frame
	.def	__main;	.scl	2;	.type	32;	.endef
	.section .rdata,"dr"
.LC0:
	.ascii "Point 1\0"
.LC1:
	.ascii "Point 2\0"
.LC2:
	.ascii "Point 3\0"
.LC3:
	.ascii "Point 4\0"
.LC4:
	.ascii "Point 7\0"
.LC5:
	.ascii "Point 8\0"
.LC6:
	.ascii "Program finished 0\0"
	.text
	.globl	main
	.def	main;	.scl	2;	.type	32;	.endef
	.seh_proc	main
main:
.LFB3962:
	.file 1 "sources/mainErr.cpp"
	.loc 1 6 12
	.cfi_startproc
	pushq	%rbp
	.seh_pushreg	%rbp
	.cfi_def_cfa_offset 16
	.cfi_offset 6, -16
	pushq	%rbx
	.seh_pushreg	%rbx
	.cfi_def_cfa_offset 24
	.cfi_offset 3, -24
	subq	$136, %rsp
	.seh_stackalloc	136
	.cfi_def_cfa_offset 160
	leaq	128(%rsp), %rbp
	.seh_setframe	%rbp, 128
	.cfi_def_cfa 6, 32
	.seh_endprologue
	movq	%rbp, %rax
	subq	$96, %rax
	addq	$31, %rax
	shrq	$5, %rax
	salq	$5, %rax
	movq	%rax, %rbx
	.loc 1 6 12
	call	__main
.LVL0:
	.loc 1 8 11
	leaq	.LC0(%rip), %rcx
	call	puts
	.loc 1 10 13
	vxorps	%xmm0, %xmm0, %xmm0
	vmovaps	%xmm0, -16(%rbp)
	.loc 1 11 11
	leaq	.LC1(%rip), %rcx
	call	puts
	.loc 1 14 11
	leaq	.LC2(%rip), %rcx
	call	puts
	.loc 1 16 12
	vxorps	%xmm0, %xmm0, %xmm0
	vmovaps	%ymm0, 32(%rbx)
	.loc 1 17 11
	leaq	.LC3(%rip), %rcx
	call	puts
	.loc 1 20 11
	leaq	.LC4(%rip), %rcx
	call	puts
	.loc 1 22 13
	vpxor	%xmm0, %xmm0, %xmm0
	vmovdqa	%ymm0, (%rbx)
	.loc 1 23 11
	leaq	.LC5(%rip), %rcx
	call	puts
	.loc 1 31 11
	leaq	.LC6(%rip), %rcx
	call	puts
	.loc 1 32 12
	movl	$0, %eax
	.loc 1 33 1
	addq	$136, %rsp
	popq	%rbx
	.cfi_restore 3
	popq	%rbp
	.cfi_restore 6
	.cfi_def_cfa 7, -120
	ret
	.cfi_endproc
.LFE3962:
	.seh_endproc
.Letext0:
	.file 2 "C:/Program Files/mingw64/x86_64-w64-mingw32/include/time.h"
	.file 3 "C:/Program Files/mingw64/lib/gcc/x86_64-w64-mingw32/8.1.0/include/c++/cstdlib"
	.file 4 "C:/Program Files/mingw64/lib/gcc/x86_64-w64-mingw32/8.1.0/include/c++/bits/std_abs.h"
	.file 5 "C:/Program Files/mingw64/lib/gcc/x86_64-w64-mingw32/8.1.0/include/c++/x86_64-w64-mingw32/bits/c++config.h"
	.file 6 "C:/Program Files/mingw64/x86_64-w64-mingw32/include/stdlib.h"
	.file 7 "C:/Program Files/mingw64/x86_64-w64-mingw32/include/crtdefs.h"
	.file 8 "C:/Program Files/mingw64/x86_64-w64-mingw32/include/malloc.h"
	.file 9 "C:/Program Files/mingw64/lib/gcc/x86_64-w64-mingw32/8.1.0/include/c++/stdlib.h"
	.file 10 "C:/Program Files/mingw64/lib/gcc/x86_64-w64-mingw32/8.1.0/include/emmintrin.h"
	.file 11 "C:/Program Files/mingw64/lib/gcc/x86_64-w64-mingw32/8.1.0/include/avxintrin.h"
	.file 12 "<built-in>"