	.file	"mainAVX.cpp"
	.text
.Ltext0:
	.cfi_sections	.debug_frame
	.section	.text$_Z6printfPKcz,"x"
	.linkonce discard
	.globl	_Z6printfPKcz
	.def	_Z6printfPKcz;	.scl	2;	.type	32;	.endef
	.seh_proc	_Z6printfPKcz
_Z6printfPKcz:
.LFB27:
	.file 1 "C:/Program Files/mingw64/x86_64-w64-mingw32/include/stdio.h"
	.loc 1 346 1
	.cfi_startproc
	pushq	%rbp
	.seh_pushreg	%rbp
	.cfi_def_cfa_offset 16
	.cfi_offset 6, -16
	pushq	%rbx
	.seh_pushreg	%rbx
	.cfi_def_cfa_offset 24
	.cfi_offset 3, -24
	subq	$56, %rsp
	.seh_stackalloc	56
	.cfi_def_cfa_offset 80
	leaq	128(%rsp), %rbp
	.seh_setframe	%rbp, 128
	.cfi_def_cfa 6, -48
	.seh_endprologue
	movq	%rcx, -48(%rbp)
	movq	%rdx, -40(%rbp)
	movq	%r8, -32(%rbp)
	movq	%r9, -24(%rbp)
	.loc 1 348 53
	leaq	-40(%rbp), %rax
	movq	%rax, -96(%rbp)
	.loc 1 349 30
	movq	-96(%rbp), %rbx
	movl	$1, %ecx
	movq	__imp___acrt_iob_func(%rip), %rax
	call	*%rax
.LVL0:
	movq	%rbx, %r8
	movq	-48(%rbp), %rdx
	movq	%rax, %rcx
	call	__mingw_vfprintf
	movl	%eax, -84(%rbp)
	.loc 1 351 10
	movl	-84(%rbp), %eax
	.loc 1 352 1
	addq	$56, %rsp
	popq	%rbx
	.cfi_restore 3
	popq	%rbp
	.cfi_restore 6
	.cfi_def_cfa 7, -40
	ret
	.cfi_endproc
.LFE27:
	.seh_endproc
	.section	.text$_Z7sprintfPcPKcz,"x"
	.linkonce discard
	.globl	_Z7sprintfPcPKcz
	.def	_Z7sprintfPcPKcz;	.scl	2;	.type	32;	.endef
	.seh_proc	_Z7sprintfPcPKcz
_Z7sprintfPcPKcz:
.LFB28:
	.loc 1 357 1
	.cfi_startproc
	pushq	%rbp
	.seh_pushreg	%rbp
	.cfi_def_cfa_offset 16
	.cfi_offset 6, -16
	movq	%rsp, %rbp
	.seh_setframe	%rbp, 0
	.cfi_def_cfa_register 6
	subq	$48, %rsp
	.seh_stackalloc	48
	.seh_endprologue
	movq	%rcx, 16(%rbp)
	movq	%rdx, 24(%rbp)
	movq	%r8, 32(%rbp)
	movq	%r9, 40(%rbp)
	.loc 1 359 53
	leaq	32(%rbp), %rax
	movq	%rax, -16(%rbp)
	.loc 1 360 30
	movq	-16(%rbp), %rdx
	movq	24(%rbp), %rax
	movq	%rdx, %r8
	movq	%rax, %rdx
	movq	16(%rbp), %rcx
	call	__mingw_vsprintf
	movl	%eax, -4(%rbp)
	.loc 1 362 10
	movl	-4(%rbp), %eax
	.loc 1 363 1
	addq	$48, %rsp
	popq	%rbp
	.cfi_restore 6
	.cfi_def_cfa 7, 8
	ret
	.cfi_endproc
.LFE28:
	.seh_endproc
	.section .rdata,"dr"
_ZStL19piecewise_construct:
	.space 1
	.section	.text$_ZSt3powff,"x"
	.linkonce discard
	.globl	_ZSt3powff
	.def	_ZSt3powff;	.scl	2;	.type	32;	.endef
	.seh_proc	_ZSt3powff
_ZSt3powff:
.LFB5541:
	.file 2 "C:/Program Files/mingw64/lib/gcc/x86_64-w64-mingw32/8.1.0/include/c++/cmath"
	.loc 2 389 3
	.cfi_startproc
	pushq	%rbp
	.seh_pushreg	%rbp
	.cfi_def_cfa_offset 16
	.cfi_offset 6, -16
	movq	%rsp, %rbp
	.seh_setframe	%rbp, 0
	.cfi_def_cfa_register 6
	subq	$32, %rsp
	.seh_stackalloc	32
	.seh_endprologue
	vmovss	%xmm0, 16(%rbp)
	vmovss	%xmm1, 24(%rbp)
	.loc 2 389 26
	vmovss	24(%rbp), %xmm0
	vmovaps	%xmm0, %xmm1
	vmovss	16(%rbp), %xmm0
	call	powf
	.loc 2 389 38
	addq	$32, %rsp
	popq	%rbp
	.cfi_restore 6
	.cfi_def_cfa 7, 8
	ret
	.cfi_endproc
.LFE5541:
	.seh_endproc
	.section .rdata,"dr"
	.align 4
_ZN9__gnu_cxxL21__default_lock_policyE:
	.long	2
_ZStL13allocator_arg:
	.space 1
_ZStL6ignore:
	.space 1
	.section	.text$_ZN2cv11_InputArray4initEiPKv,"x"
	.linkonce discard
	.align 2
	.globl	_ZN2cv11_InputArray4initEiPKv
	.def	_ZN2cv11_InputArray4initEiPKv;	.scl	2;	.type	32;	.endef
	.seh_proc	_ZN2cv11_InputArray4initEiPKv
_ZN2cv11_InputArray4initEiPKv:
.LFB7444:
	.file 3 "D:/programming/libraries/opencv-4.6.0/opencv-build-release-freetype/install/include/opencv2/core/mat.inl.hpp"
	.loc 3 92 1
	.cfi_startproc
	pushq	%rbp
	.seh_pushreg	%rbp
	.cfi_def_cfa_offset 16
	.cfi_offset 6, -16
	movq	%rsp, %rbp
	.seh_setframe	%rbp, 0
	.cfi_def_cfa_register 6
	.seh_endprologue
	movq	%rcx, 16(%rbp)
	movl	%edx, 24(%rbp)
	movq	%r8, 32(%rbp)
	.loc 3 92 9
	movq	16(%rbp), %rax
	movl	24(%rbp), %edx
	movl	%edx, (%rax)
	.loc 3 92 23
	movq	16(%rbp), %rax
	movq	32(%rbp), %rdx
	movq	%rdx, 8(%rax)
	.loc 3 92 38
	nop
	popq	%rbp
	.cfi_restore 6
	.cfi_def_cfa 7, 8
	ret
	.cfi_endproc
.LFE7444:
	.seh_endproc
	.section	.text$_ZN2cv11_InputArrayC1ERKNS_3MatE,"x"
	.linkonce discard
	.align 2
	.globl	_ZN2cv11_InputArrayC1ERKNS_3MatE
	.def	_ZN2cv11_InputArrayC1ERKNS_3MatE;	.scl	2;	.type	32;	.endef
	.seh_proc	_ZN2cv11_InputArrayC1ERKNS_3MatE
_ZN2cv11_InputArrayC1ERKNS_3MatE:
.LFB7457:
	.loc 3 103 8
	.cfi_startproc
	pushq	%rbp
	.seh_pushreg	%rbp
	.cfi_def_cfa_offset 16
	.cfi_offset 6, -16
	movq	%rsp, %rbp
	.seh_setframe	%rbp, 0
	.cfi_def_cfa_register 6
	subq	$32, %rsp
	.seh_stackalloc	32
	.seh_endprologue
	movq	%rcx, 16(%rbp)
	movq	%rdx, 24(%rbp)
.LBB71:
	.loc 3 103 45
	movq	16(%rbp), %rax
	addq	$16, %rax
	movq	%rax, %rcx
	call	_ZN2cv5Size_IiEC1Ev
	.loc 3 103 53
	movq	24(%rbp), %rax
	movq	%rax, %r8
	movl	$16842752, %edx
	movq	16(%rbp), %rcx
	call	_ZN2cv11_InputArray4initEiPKv
.LBE71:
	.loc 3 103 76
	nop
	addq	$32, %rsp
	popq	%rbp
	.cfi_restore 6
	.cfi_def_cfa 7, 8
	ret
	.cfi_endproc
.LFE7457:
	.seh_endproc
	.section	.text$_ZN2cv11_InputArrayD1Ev,"x"
	.linkonce discard
	.align 2
	.globl	_ZN2cv11_InputArrayD1Ev
	.def	_ZN2cv11_InputArrayD1Ev;	.scl	2;	.type	32;	.endef
	.seh_proc	_ZN2cv11_InputArrayD1Ev
_ZN2cv11_InputArrayD1Ev:
.LFB7497:
	.loc 3 178 8
	.cfi_startproc
	pushq	%rbp
	.seh_pushreg	%rbp
	.cfi_def_cfa_offset 16
	.cfi_offset 6, -16
	movq	%rsp, %rbp
	.seh_setframe	%rbp, 0
	.cfi_def_cfa_register 6
	.seh_endprologue
	movq	%rcx, 16(%rbp)
	.loc 3 178 37
	nop
	popq	%rbp
	.cfi_restore 6
	.cfi_def_cfa 7, 8
	ret
	.cfi_endproc
.LFE7497:
	.seh_endproc
	.section	.text$_ZNK2cv3Mat9elemSize1Ev,"x"
	.linkonce discard
	.align 2
	.globl	_ZNK2cv3Mat9elemSize1Ev
	.def	_ZNK2cv3Mat9elemSize1Ev;	.scl	2;	.type	32;	.endef
	.seh_proc	_ZNK2cv3Mat9elemSize1Ev
_ZNK2cv3Mat9elemSize1Ev:
.LFB7676:
	.loc 3 676 1
	.cfi_startproc
	pushq	%rbp
	.seh_pushreg	%rbp
	.cfi_def_cfa_offset 16
	.cfi_offset 6, -16
	movq	%rsp, %rbp
	.seh_setframe	%rbp, 0
	.cfi_def_cfa_register 6
	.seh_endprologue
	movq	%rcx, 16(%rbp)
	.loc 3 677 12
	movq	16(%rbp), %rax
	movl	(%rax), %eax
	andl	$7, %eax
	sall	$2, %eax
	movl	$675553809, %edx
	sarx	%eax, %edx, %eax
	cltq
	andl	$15, %eax
	.loc 3 678 1
	popq	%rbp
	.cfi_restore 6
	.cfi_def_cfa 7, 8
	ret
	.cfi_endproc
.LFE7676:
	.seh_endproc
	.section	.text$_ZNK2cv3Mat8channelsEv,"x"
	.linkonce discard
	.align 2
	.globl	_ZNK2cv3Mat8channelsEv
	.def	_ZNK2cv3Mat8channelsEv;	.scl	2;	.type	32;	.endef
	.seh_proc	_ZNK2cv3Mat8channelsEv
_ZNK2cv3Mat8channelsEv:
.LFB7679:
	.loc 3 694 1
	.cfi_startproc
	pushq	%rbp
	.seh_pushreg	%rbp
	.cfi_def_cfa_offset 16
	.cfi_offset 6, -16
	movq	%rsp, %rbp
	.seh_setframe	%rbp, 0
	.cfi_def_cfa_register 6
	.seh_endprologue
	movq	%rcx, 16(%rbp)
	.loc 3 695 12
	movq	16(%rbp), %rax
	movl	(%rax), %eax
	sarl	$3, %eax
	andl	$511, %eax
	incl	%eax
	.loc 3 696 1
	popq	%rbp
	.cfi_restore 6
	.cfi_def_cfa 7, 8
	ret
	.cfi_endproc
.LFE7679:
	.seh_endproc
	.section .rdata,"dr"
_ZStL10defer_lock:
	.space 1
_ZStL11try_to_lock:
	.space 1
_ZStL10adopt_lock:
	.space 1
.lcomm _ZStL8__ioinit,1,1
	.align 8
_ZN7cvflannL8WORDSIZEE:
	.quad	16
	.align 8
_ZN7cvflannL9BLOCKSIZEE:
	.quad	8192
	.align 2
_ZL8WINSIZEX:
	.word	1000
	.align 2
_ZL8WINSIZEY:
	.word	704
	.globl	SCALE
	.data
	.align 4
SCALE:
	.long	992204554
	.globl	OFFSETX
	.align 4
OFFSETX:
	.long	-1073741824
	.globl	OFFSETY
	.bss
	.align 4
OFFSETY:
	.space 4
	.section .rdata,"dr"
	.align 4
_ZL6INFRAD:
	.long	1092616192
	.align 2
_ZL6INFNUM:
	.word	700
	.align 8
_ZL7WINNAME:
	.ascii "mandelbrotAVX\0"
	.align 4
_ZL7BOOST_F:
	.long	8
	.globl	ADDSEQ
	.bss
	.align 32
ADDSEQ:
	.space 32
.lcomm _ZL6ONESEQ,32,32
.lcomm _ZL8SCALESEQ,32,32
.lcomm _ZL6TWOSEQ,32,32
.lcomm _ZL12INFRADPOSSEQ,32,32
	.def	__main;	.scl	2;	.type	32;	.endef
	.section .rdata,"dr"
.LC0:
	.ascii "run2\12\0"
.LC6:
	.ascii "%f\0"
.LC7:
	.ascii "Program finished 0\12\0"
	.text
	.globl	main
	.def	main;	.scl	2;	.type	32;	.endef
	.seh_proc	main
main:
.LFB12838:
	.file 4 "sources/mainAVX.cpp"
	.loc 4 14 12
	.cfi_startproc
	pushq	%rbp
	.seh_pushreg	%rbp
	.cfi_def_cfa_offset 16
	.cfi_offset 6, -16
	pushq	%rbx
	.seh_pushreg	%rbx
	.cfi_def_cfa_offset 24
	.cfi_offset 3, -24
	subq	$1880, %rsp
	.seh_stackalloc	1880
	.cfi_def_cfa_offset 1904
	leaq	128(%rsp), %rbp
	.seh_setframe	%rbp, 128
	.cfi_def_cfa 6, 1776
	vmovaps	%xmm6, 1728(%rbp)
	.seh_savexmm	%xmm6, 1856
	.cfi_offset 23, -48
	.seh_endprologue
	leaq	1728(%rbp), %rax
	subq	$1792, %rax
	addq	$31, %rax
	shrq	$5, %rax
	salq	$5, %rax
	movq	%rax, %rbx
	.loc 4 14 12
	call	__main
.LVL1:
	.loc 4 19 11
	leaq	.LC0(%rip), %rcx
.LEHB0:
	call	_Z6printfPKcz
	.loc 4 20 32
	leaq	-96(%rbp), %rax
	movq	%rax, %rcx
	call	_Z13mmy256_set123v
	vmovdqa	-96(%rbp), %ymm0
	.loc 4 20 17
	vmovdqa	%ymm0, ADDSEQ(%rip)
	.loc 4 21 11
	movl	$1, %ecx
	movq	__imp___acrt_iob_func(%rip), %rax
	call	*%rax
.LVL2:
	movq	%rax, %rcx
	call	fflush
	.loc 4 23 42
	leaq	1504(%rbp), %rax
	movl	$16, %r9d
	movl	$1000, %r8d
	movl	$704, %edx
	movq	%rax, %rcx
	call	_ZN2cv3MatC1Eiii
.LEHE0:
	.loc 4 24 11
	leaq	1504(%rbp), %rdx
	leaq	1600(%rbp), %rax
	movq	%rax, %rcx
	call	_ZN2cv11_InputArrayC1ERKNS_3MatE
	leaq	1667(%rbp), %rax
	movq	%rax, %rcx
	call	_ZNSaIcEC1Ev
	leaq	1667(%rbp), %rdx
	leaq	1632(%rbp), %rax
	movq	%rdx, %r8
	leaq	_ZL7WINNAME(%rip), %rdx
	movq	%rax, %rcx
.LEHB1:
	call	_ZNSt7__cxx1112basic_stringIcSt11char_traitsIcESaIcEEC1EPKcRKS3_
.LEHE1:
	.loc 4 24 11 is_stmt 0 discriminator 3
	leaq	1600(%rbp), %rdx
	leaq	1632(%rbp), %rax
	movq	%rax, %rcx
.LEHB2:
	call	_ZN2cv6imshowERKNSt7__cxx1112basic_stringIcSt11char_traitsIcESaIcEEERKNS_11_InputArrayE
.LEHE2:
	.loc 4 24 11 discriminator 5
	leaq	1632(%rbp), %rax
	movq	%rax, %rcx
	call	_ZNSt7__cxx1112basic_stringIcSt11char_traitsIcESaIcEED1Ev
	leaq	1667(%rbp), %rax
	movq	%rax, %rcx
	call	_ZNSaIcED1Ev
	leaq	1600(%rbp), %rax
	movq	%rax, %rcx
	call	_ZN2cv11_InputArrayD1Ev
	.loc 4 26 26 is_stmt 1 discriminator 5
	call	clock
	movl	%eax, 1724(%rbp)
	.loc 4 28 9 discriminator 5
	movl	$0, 1720(%rbp)
.L49:
	.loc 4 29 16
	cmpl	$27, 1720(%rbp)
	je	.L15
.LBB72:
.LBB73:
	.loc 4 30 22
	movl	$0, 1716(%rbp)
.L48:
	.loc 4 30 35 discriminator 1
	cmpl	$703, 1716(%rbp)
	jg	.L16
.LBB74:
.LBB75:
	.loc 4 31 26
	movl	$0, 1712(%rbp)
.L47:
	.loc 4 31 39 discriminator 1
	cmpl	$999, 1712(%rbp)
	jg	.L17
.LBB76:
	.loc 4 36 44
	vmovss	OFFSETX(%rip), %xmm0
	vmovss	%xmm0, 1676(%rbp)
.LBB77:
.LBB78:
	.file 5 "C:/Program Files/mingw64/lib/gcc/x86_64-w64-mingw32/8.1.0/include/avxintrin.h"
	.loc 5 1313 25
	vbroadcastss	1676(%rbp), %ymm0
.LBE78:
.LBE77:
	.loc 4 36 44
	vmovaps	%ymm0, 1376(%rbx)
	.loc 4 37 44
	vmovss	OFFSETY(%rip), %xmm0
	vmovss	%xmm0, 1680(%rbp)
.LBB79:
.LBB80:
	.loc 5 1313 25
	vbroadcastss	1680(%rbp), %ymm0
.LBE80:
.LBE79:
	.loc 4 37 44
	vmovaps	%ymm0, 1344(%rbx)
	.loc 4 39 48
	vmovdqa	ADDSEQ(%rip), %ymm0
	movl	1716(%rbp), %eax
	movl	%eax, 1684(%rbp)
.LBB81:
.LBB82:
	.loc 5 1320 24
	vpbroadcastd	1684(%rbp), %ymm1
	vmovdqa	%ymm1, 1152(%rbx)
	vmovdqa	%ymm0, 1120(%rbx)
.LBE82:
.LBE81:
.LBB83:
.LBB84:
	.file 6 "C:/Program Files/mingw64/lib/gcc/x86_64-w64-mingw32/8.1.0/include/avx2intrin.h"
	.loc 6 121 21
	vmovdqa	1152(%rbx), %ymm1
	.loc 6 121 35
	vmovdqa	1120(%rbx), %ymm0
	.loc 6 121 33
	vpaddd	%ymm0, %ymm1, %ymm0
.LBE84:
.LBE83:
	.loc 4 39 48
	vmovdqa	%ymm0, 1312(%rbx)
	.loc 4 40 36
	vmovaps	_ZL8SCALESEQ(%rip), %ymm0
	vmovdqa	1312(%rbx), %ymm1
	vmovdqa	%ymm1, 1184(%rbx)
.LBB85:
.LBB86:
	.loc 5 455 10
	vmovdqa	1184(%rbx), %ymm1
	vcvtdq2ps	%ymm1, %ymm1
	vmovaps	%ymm1, 992(%rbx)
	vmovaps	%ymm0, 960(%rbx)
.LBE86:
.LBE85:
.LBB87:
.LBB88:
	.loc 5 319 10
	vmovaps	992(%rbx), %ymm0
	vmulps	960(%rbx), %ymm0, %ymm0
.LBE88:
.LBE87:
	.loc 4 40 36
	vmovaps	%ymm0, %ymm1
	vmovaps	1376(%rbx), %ymm0
	vmovaps	%ymm0, 1056(%rbx)
	vmovaps	%ymm1, 1024(%rbx)
.LBB89:
.LBB90:
	.loc 5 148 10
	vmovaps	1056(%rbx), %ymm0
	vaddps	1024(%rbx), %ymm0, %ymm0
.LBE90:
.LBE89:
	.loc 4 40 36
	vmovaps	%ymm0, 1376(%rbx)
	.loc 4 41 36
	vmovaps	_ZL8SCALESEQ(%rip), %ymm0
	movl	1716(%rbp), %eax
	movl	%eax, 1672(%rbp)
.LBB91:
.LBB92:
	.loc 5 1320 24
	vpbroadcastd	1672(%rbp), %ymm1
	vmovdqa	%ymm1, 1088(%rbx)
.LBE92:
.LBE91:
.LBB93:
.LBB94:
	.loc 5 455 10
	vmovdqa	1088(%rbx), %ymm1
	vcvtdq2ps	%ymm1, %ymm1
	vmovaps	%ymm1, 864(%rbx)
	vmovaps	%ymm0, 832(%rbx)
.LBE94:
.LBE93:
.LBB95:
.LBB96:
	.loc 5 319 10
	vmovaps	864(%rbx), %ymm0
	vmulps	832(%rbx), %ymm0, %ymm0
.LBE96:
.LBE95:
	.loc 4 41 36
	vmovaps	%ymm0, %ymm1
	vmovaps	1344(%rbx), %ymm0
	vmovaps	%ymm0, 928(%rbx)
	vmovaps	%ymm1, 896(%rbx)
.LBB97:
.LBB98:
	.loc 5 148 10
	vmovaps	928(%rbx), %ymm0
	vaddps	896(%rbx), %ymm0, %ymm0
.LBE98:
.LBE97:
	.loc 4 41 36
	vmovaps	%ymm0, 1344(%rbx)
	.loc 4 45 24
	vmovaps	1376(%rbx), %ymm0
	vmovaps	%ymm0, 1472(%rbx)
	.loc 4 46 24
	vmovaps	1344(%rbx), %ymm0
	vmovaps	%ymm0, 1440(%rbx)
	.loc 4 49 24
	vxorps	%xmm0, %xmm0, %xmm0
	vmovaps	%ymm0, 1504(%rbx)
	.loc 4 51 25
	movl	$0, 1708(%rbp)
	movl	$0, 1668(%rbp)
.LBB99:
.LBB100:
	.loc 5 1320 24
	vpbroadcastd	1668(%rbp), %ymm0
.LBE100:
.LBE99:
	.loc 4 52 59
	vmovdqa	%ymm0, 1408(%rbx)
	.loc 4 55 25
	vpxor	%xmm0, %xmm0, %xmm0
	vmovdqa	%ymm0, 1280(%rbx)
	.loc 4 57 22
	movb	$1, 1707(%rbp)
.L44:
	.loc 4 59 41
	cmpl	$699, 1708(%rbp)
	jg	.L30
	.loc 4 59 41 is_stmt 0 discriminator 1
	movzbl	1707(%rbp), %eax
	xorl	$1, %eax
	movzbl	%al, %eax
	testw	%ax, %ax
	jne	.L30
	vmovaps	1440(%rbx), %ymm0
	vmovaps	%ymm0, 224(%rbx)
	vmovaps	1440(%rbx), %ymm0
	vmovaps	%ymm0, 192(%rbx)
.LBB101:
.LBB102:
.LBB103:
	.loc 5 319 10 is_stmt 1
	vmovaps	224(%rbx), %ymm0
	vmulps	192(%rbx), %ymm0, %ymm0
.LBE103:
.LBE102:
	.loc 4 63 50
	vmovaps	%ymm0, %ymm1
	vmovaps	1472(%rbx), %ymm0
	vmovaps	%ymm0, 288(%rbx)
	vmovaps	1472(%rbx), %ymm0
	vmovaps	%ymm0, 256(%rbx)
.LBB104:
.LBB105:
	.loc 5 319 10
	vmovaps	288(%rbx), %ymm0
	vmulps	256(%rbx), %ymm0, %ymm0
	vmovaps	%ymm0, 352(%rbx)
	vmovaps	%ymm1, 320(%rbx)
.LBE105:
.LBE104:
.LBB106:
.LBB107:
	.loc 5 367 10
	vmovaps	352(%rbx), %ymm0
	vsubps	320(%rbx), %ymm0, %ymm0
.LBE107:
.LBE106:
	.loc 4 63 50
	vmovaps	%ymm0, 1248(%rbx)
	.loc 4 65 50
	vmovaps	_ZL6TWOSEQ(%rip), %ymm0
	vmovaps	1472(%rbx), %ymm1
	vmovaps	%ymm1, 416(%rbx)
	vmovaps	1440(%rbx), %ymm1
	vmovaps	%ymm1, 384(%rbx)
.LBB108:
.LBB109:
	.loc 5 319 10
	vmovaps	416(%rbx), %ymm1
	vmulps	384(%rbx), %ymm1, %ymm1
	vmovaps	%ymm1, 480(%rbx)
	vmovaps	%ymm0, 448(%rbx)
.LBE109:
.LBE108:
.LBB110:
.LBB111:
	vmovaps	480(%rbx), %ymm0
	vmulps	448(%rbx), %ymm0, %ymm0
.LBE111:
.LBE110:
	.loc 4 65 50
	vmovaps	%ymm0, 1216(%rbx)
	vmovaps	1248(%rbx), %ymm0
	vmovaps	%ymm0, 544(%rbx)
	vmovaps	1376(%rbx), %ymm0
	vmovaps	%ymm0, 512(%rbx)
.LBB112:
.LBB113:
	.loc 5 148 10
	vmovaps	544(%rbx), %ymm0
	vaddps	512(%rbx), %ymm0, %ymm0
.LBE113:
.LBE112:
	.loc 4 68 39
	vmovaps	%ymm0, 1472(%rbx)
	vmovaps	1216(%rbx), %ymm0
	vmovaps	%ymm0, 608(%rbx)
	vmovaps	1344(%rbx), %ymm0
	vmovaps	%ymm0, 576(%rbx)
.LBB114:
.LBB115:
	.loc 5 148 10
	vmovaps	608(%rbx), %ymm0
	vaddps	576(%rbx), %ymm0, %ymm0
.LBE115:
.LBE114:
	.loc 4 70 39
	vmovaps	%ymm0, 1440(%rbx)
	vmovaps	1440(%rbx), %ymm0
	vmovaps	%ymm0, 672(%rbx)
	vmovaps	1440(%rbx), %ymm0
	vmovaps	%ymm0, 640(%rbx)
.LBB116:
.LBB117:
	.loc 5 319 10
	vmovaps	672(%rbx), %ymm0
	vmulps	640(%rbx), %ymm0, %ymm0
.LBE117:
.LBE116:
	.loc 4 74 46
	vmovaps	%ymm0, %ymm1
	vmovaps	1472(%rbx), %ymm0
	vmovaps	%ymm0, 736(%rbx)
	vmovaps	1472(%rbx), %ymm0
	vmovaps	%ymm0, 704(%rbx)
.LBB118:
.LBB119:
	.loc 5 319 10
	vmovaps	736(%rbx), %ymm0
	vmulps	704(%rbx), %ymm0, %ymm0
	vmovaps	%ymm0, 800(%rbx)
	vmovaps	%ymm1, 768(%rbx)
.LBE119:
.LBE118:
.LBB120:
.LBB121:
	.loc 5 148 10
	vmovaps	800(%rbx), %ymm0
	vaddps	768(%rbx), %ymm0, %ymm0
.LBE121:
.LBE120:
	.loc 4 74 31
	vmovaps	%ymm0, 1504(%rbx)
	.loc 4 77 47
	vmovaps	_ZL12INFRADPOSSEQ(%rip), %ymm1
	vmovaps	1504(%rbx), %ymm0
	vcmpps	$13, %ymm1, %ymm0, %ymm0
	.loc 4 77 36
	vmovdqa	%ymm0, 1280(%rbx)
	vmovdqa	1280(%rbx), %ymm0
	vmovdqa	%ymm0, 160(%rbx)
	vmovdqa	1280(%rbx), %ymm0
	vmovdqa	%ymm0, 128(%rbx)
.LBB122:
.LBB123:
	.loc 5 1172 35
	movl	$0, %eax
	vmovdqa	160(%rbx), %ymm0
	vptest	128(%rbx), %ymm0
	sete	%al
.LBE123:
.LBE122:
	.loc 4 78 39
	testl	%eax, %eax
	setne	%al
	movb	%al, 1707(%rbp)
	.loc 4 80 54
	vmovdqa	_ZL6ONESEQ(%rip), %ymm0
	vmovdqa	%ymm0, 32(%rbx)
	vmovdqa	1280(%rbx), %ymm0
	vmovdqa	%ymm0, (%rbx)
.LBB124:
.LBB125:
	.loc 6 121 21
	vmovdqa	32(%rbx), %ymm1
	.loc 6 121 35
	vmovdqa	(%rbx), %ymm0
	.loc 6 121 33
	vpaddd	%ymm0, %ymm1, %ymm0
.LBE125:
.LBE124:
	.loc 4 80 54
	vmovdqa	%ymm0, %ymm1
	vmovdqa	1408(%rbx), %ymm0
	vmovdqa	%ymm0, 96(%rbx)
	vmovdqa	%ymm1, 64(%rbx)
.LBB126:
.LBB127:
	.loc 6 121 21
	vmovdqa	96(%rbx), %ymm1
	.loc 6 121 35
	vmovdqa	64(%rbx), %ymm0
	.loc 6 121 33
	vpaddd	%ymm0, %ymm1, %ymm0
.LBE127:
.LBE126:
	.loc 4 80 54
	vmovdqa	%ymm0, 1408(%rbx)
	.loc 4 81 21
	incl	1708(%rbp)
.LBE101:
	.loc 4 59 17
	jmp	.L44
.L30:
.LBB128:
	.loc 4 84 17
	cmpl	$700, 1708(%rbp)
	jne	.L45
	.loc 4 85 45
	movl	1712(%rbp), %ecx
	movl	1716(%rbp), %edx
	leaq	1504(%rbp), %rax
	movl	%ecx, %r8d
	movq	%rax, %rcx
.LEHB3:
	call	_ZN2cv3Mat2atINS_3VecIhLi3EEEEERT_ii
	.loc 4 85 48
	movl	$0, %edx
	movq	%rax, %rcx
	call	_ZN2cv3VecIhLi3EEixEi
	.loc 4 85 50 discriminator 1
	movb	$0, (%rax)
	.loc 4 86 45 discriminator 1
	movl	1712(%rbp), %ecx
	movl	1716(%rbp), %edx
	leaq	1504(%rbp), %rax
	movl	%ecx, %r8d
	movq	%rax, %rcx
	call	_ZN2cv3Mat2atINS_3VecIhLi3EEEEERT_ii
	.loc 4 86 48 discriminator 2
	movl	$1, %edx
	movq	%rax, %rcx
	call	_ZN2cv3VecIhLi3EEixEi
	.loc 4 86 50 discriminator 1
	movb	$0, (%rax)
	.loc 4 87 45 discriminator 1
	movl	1712(%rbp), %ecx
	movl	1716(%rbp), %edx
	leaq	1504(%rbp), %rax
	movl	%ecx, %r8d
	movq	%rax, %rcx
	call	_ZN2cv3Mat2atINS_3VecIhLi3EEEEERT_ii
	.loc 4 87 48 discriminator 2
	movl	$2, %edx
	movq	%rax, %rcx
	call	_ZN2cv3VecIhLi3EEixEi
	.loc 4 87 50 discriminator 1
	movb	$0, (%rax)
	jmp	.L46
.L45:
.LBB129:
	.loc 4 90 36
	vcvtsi2ss	1708(%rbp), %xmm0, %xmm0
	.loc 4 90 27
	vmovss	.LC1(%rip), %xmm1
	vdivss	%xmm1, %xmm0, %xmm0
	vmovss	%xmm0, 1700(%rbp)
	.loc 4 92 45
	movl	1712(%rbp), %ecx
	movl	1716(%rbp), %edx
	leaq	1504(%rbp), %rax
	movl	%ecx, %r8d
	movq	%rax, %rcx
	call	_ZN2cv3Mat2atINS_3VecIhLi3EEEEERT_ii
	.loc 4 92 48
	movl	$0, %edx
	movq	%rax, %rcx
	call	_ZN2cv3VecIhLi3EEixEi
	.loc 4 92 50 discriminator 1
	movb	$50, (%rax)
	.loc 4 94 73 discriminator 1
	movl	1700(%rbp), %eax
	vmovss	.LC2(%rip), %xmm1
	vmovd	%eax, %xmm0
	call	_ZSt3powff
	vmovaps	%xmm0, %xmm1
	.loc 4 94 68 discriminator 1
	vmovss	.LC3(%rip), %xmm0
	vmulss	%xmm0, %xmm1, %xmm6
	.loc 4 94 45 discriminator 1
	movl	1712(%rbp), %ecx
	movl	1716(%rbp), %edx
	leaq	1504(%rbp), %rax
	movl	%ecx, %r8d
	movq	%rax, %rcx
	call	_ZN2cv3Mat2atINS_3VecIhLi3EEEEERT_ii
	.loc 4 94 48 discriminator 2
	movl	$1, %edx
	movq	%rax, %rcx
	call	_ZN2cv3VecIhLi3EEixEi
	.loc 4 94 48 is_stmt 0 discriminator 1
	movq	%rax, %rdx
	.loc 4 94 52 is_stmt 1 discriminator 1
	vcvttss2si	%xmm6, %eax
	.loc 4 94 50 discriminator 1
	movb	%al, (%rdx)
	.loc 4 95 45 discriminator 1
	movl	1712(%rbp), %ecx
	movl	1716(%rbp), %edx
	leaq	1504(%rbp), %rax
	movl	%ecx, %r8d
	movq	%rax, %rcx
	call	_ZN2cv3Mat2atINS_3VecIhLi3EEEEERT_ii
	.loc 4 95 48 discriminator 2
	movl	$2, %edx
	movq	%rax, %rcx
	call	_ZN2cv3VecIhLi3EEixEi
	.loc 4 95 50 discriminator 1
	movb	$0, (%rax)
.L46:
.LBE129:
.LBE128:
.LBE76:
	.loc 4 31 55 discriminator 2
	addl	$8, 1712(%rbp)
	.loc 4 31 13 discriminator 2
	jmp	.L47
.L17:
.LBE75:
.LBE74:
	.loc 4 30 9 discriminator 2
	incl	1716(%rbp)
	jmp	.L48
.L16:
.LBE73:
	.loc 4 101 32
	movl	1724(%rbp), %eax
	negl	%eax
	.loc 4 101 23
	vcvtsi2sd	%eax, %xmm6, %xmm6
	.loc 4 101 56
	call	clock
	movl	%eax, 1724(%rbp)
	.loc 4 101 40
	vcvtsi2sd	1724(%rbp), %xmm0, %xmm0
	vaddsd	%xmm0, %xmm6, %xmm0
	.loc 4 101 63
	vmovsd	.LC4(%rip), %xmm1
	vdivsd	%xmm1, %xmm0, %xmm0
	vmovsd	%xmm0, 1688(%rbp)
	.loc 4 102 14
	movq	$0, 1494(%rbp)
	movw	$0, 1502(%rbp)
	.loc 4 103 16
	vmovsd	.LC5(%rip), %xmm0
	vdivsd	1688(%rbp), %xmm0, %xmm0
	vmovq	%xmm0, %rax
	movq	%rax, %rdx
	vmovq	%rax, %xmm0
	leaq	1494(%rbp), %rax
	vmovq	%rdx, %xmm2
	vmovq	%xmm0, %r8
	leaq	.LC6(%rip), %rdx
	movq	%rax, %rcx
	call	_Z7sprintfPcPKcz
	.loc 4 107 22
	movl	$1, %ecx
	call	_ZN2cv7waitKeyEi
	.loc 4 107 22 is_stmt 0 discriminator 1
	movl	%eax, 1720(%rbp)
.LBE72:
	.loc 4 29 5 is_stmt 1 discriminator 1
	jmp	.L49
.L15:
	.loc 4 111 11
	leaq	.LC7(%rip), %rcx
	call	_Z6printfPKcz
.LEHE3:
	.loc 4 112 12
	movl	$0, %ebx
	.loc 4 23 42
	leaq	1504(%rbp), %rax
	movq	%rax, %rcx
	call	_ZN2cv3MatD1Ev
	movl	%ebx, %eax
	jmp	.L57
.L56:
	movq	%rax, %rbx
	.loc 4 24 11
	leaq	1632(%rbp), %rax
	movq	%rax, %rcx
	call	_ZNSt7__cxx1112basic_stringIcSt11char_traitsIcESaIcEED1Ev
	jmp	.L52
.L55:
	movq	%rax, %rbx
.L52:
	.loc 4 24 11 is_stmt 0 discriminator 2
	leaq	1667(%rbp), %rax
	movq	%rax, %rcx
	call	_ZNSaIcED1Ev
	leaq	1600(%rbp), %rax
	movq	%rax, %rcx
	call	_ZN2cv11_InputArrayD1Ev
	jmp	.L53
.L54:
	movq	%rax, %rbx
.L53:
	.loc 4 23 42 is_stmt 1
	leaq	1504(%rbp), %rax
	movq	%rax, %rcx
	call	_ZN2cv3MatD1Ev
	movq	%rbx, %rax
	movq	%rax, %rcx
.LEHB4:
	call	_Unwind_Resume
.LEHE4:
.L57:
	.loc 4 113 1
	vmovaps	1728(%rbp), %xmm6
	addq	$1880, %rsp
	.cfi_restore 23
	popq	%rbx
	.cfi_restore 3
	popq	%rbp
	.cfi_restore 6
	.cfi_def_cfa 7, -1864
	ret
	.cfi_endproc
.LFE12838:
	.def	__gxx_personality_seh0;	.scl	2;	.type	32;	.endef
	.seh_handler	__gxx_personality_seh0, @unwind, @except
	.seh_handlerdata
.LLSDA12838:
	.byte	0xff
	.byte	0xff
	.byte	0x1
	.uleb128 .LLSDACSE12838-.LLSDACSB12838
.LLSDACSB12838:
	.uleb128 .LEHB0-.LFB12838
	.uleb128 .LEHE0-.LEHB0
	.uleb128 0
	.uleb128 0
	.uleb128 .LEHB1-.LFB12838
	.uleb128 .LEHE1-.LEHB1
	.uleb128 .L55-.LFB12838
	.uleb128 0
	.uleb128 .LEHB2-.LFB12838
	.uleb128 .LEHE2-.LEHB2
	.uleb128 .L56-.LFB12838
	.uleb128 0
	.uleb128 .LEHB3-.LFB12838
	.uleb128 .LEHE3-.LEHB3
	.uleb128 .L54-.LFB12838
	.uleb128 0
	.uleb128 .LEHB4-.LFB12838
	.uleb128 .LEHE4-.LEHB4
	.uleb128 0
	.uleb128 0
.LLSDACSE12838:
	.text
	.seh_endproc
	.section .rdata,"dr"
.LC8:
	.ascii "run0\12\0"
.LC9:
	.ascii "run1\12\0"
	.text
	.globl	_Z13mmy256_set123v
	.def	_Z13mmy256_set123v;	.scl	2;	.type	32;	.endef
	.seh_proc	_Z13mmy256_set123v
_Z13mmy256_set123v:
.LFB12839:
	.loc 4 115 25
	.cfi_startproc
	pushq	%rbp
	.seh_pushreg	%rbp
	.cfi_def_cfa_offset 16
	.cfi_offset 6, -16
	movq	%rsp, %rbp
	.seh_setframe	%rbp, 0
	.cfi_def_cfa_register 6
	subq	$48, %rsp
	.seh_stackalloc	48
	.seh_endprologue
	movq	%rcx, 16(%rbp)
	.loc 4 116 11
	leaq	.LC8(%rip), %rcx
	call	_Z6printfPKcz
	movl	$0, -8(%rbp)
.LBB130:
.LBB131:
	.loc 5 1320 24
	vpbroadcastd	-8(%rbp), %ymm0
.LBE131:
.LBE130:
	.loc 4 117 38
	movq	16(%rbp), %rax
	vmovdqa	%ymm0, (%rax)
	.loc 4 119 11
	leaq	.LC9(%rip), %rcx
	call	_Z6printfPKcz
.LBB132:
	.loc 4 120 18
	movl	$0, -4(%rbp)
.L61:
	.loc 4 120 27 discriminator 3
	cmpl	$7, -4(%rbp)
	jg	.L60
	.loc 4 121 27 discriminator 2
	movl	-4(%rbp), %eax
	cltq
	leaq	0(,%rax,4), %rdx
	movq	16(%rbp), %rax
	addq	%rdx, %rax
	.loc 4 121 29 discriminator 2
	movl	-4(%rbp), %edx
	movl	%edx, (%rax)
	.loc 4 120 5 discriminator 2
	incl	-4(%rbp)
	jmp	.L61
.L60:
.LBE132:
	.loc 4 124 11
	leaq	.LC8(%rip), %rcx
	call	_Z6printfPKcz
	.loc 4 125 12
	nop
	.loc 4 126 1
	movq	16(%rbp), %rax
	addq	$48, %rsp
	popq	%rbp
	.cfi_restore 6
	.cfi_def_cfa 7, 8
	ret
	.cfi_endproc
.LFE12839:
	.seh_endproc
	.section	.text$_ZN2cv5Size_IiEC1Ev,"x"
	.linkonce discard
	.align 2
	.globl	_ZN2cv5Size_IiEC1Ev
	.def	_ZN2cv5Size_IiEC1Ev;	.scl	2;	.type	32;	.endef
	.seh_proc	_ZN2cv5Size_IiEC1Ev
_ZN2cv5Size_IiEC1Ev:
.LFB13141:
	.file 7 "D:/programming/libraries/opencv-4.6.0/opencv-build-release-freetype/install/include/opencv2/core/types.hpp"
	.loc 7 1674 1
	.cfi_startproc
	pushq	%rbp
	.seh_pushreg	%rbp
	.cfi_def_cfa_offset 16
	.cfi_offset 6, -16
	movq	%rsp, %rbp
	.seh_setframe	%rbp, 0
	.cfi_def_cfa_register 6
	.seh_endprologue
	movq	%rcx, 16(%rbp)
.LBB133:
	.loc 7 1675 25
	movq	16(%rbp), %rax
	movl	$0, (%rax)
	movq	16(%rbp), %rax
	movl	$0, 4(%rax)
.LBE133:
	.loc 7 1675 28
	nop
	popq	%rbp
	.cfi_restore 6
	.cfi_def_cfa 7, 8
	ret
	.cfi_endproc
.LFE13141:
	.seh_endproc
	.section .rdata,"dr"
.LC10:
	.ascii "dims <= 2\0"
	.align 8
.LC11:
	.ascii "D:\\programming\\libraries\\opencv-4.6.0\\opencv-build-release-freetype\\install\\include/opencv2/core/mat.inl.hpp\0"
.LC12:
	.ascii "data\0"
	.align 8
.LC13:
	.ascii "(unsigned)i0 < (unsigned)size.p[0]\0"
	.align 8
.LC14:
	.ascii "(unsigned)(i1 * DataType<_Tp>::channels) < (unsigned)(size.p[1] * channels())\0"
	.align 8
.LC15:
	.ascii "((0x28442211 >> ((traits::Depth<_Tp>::value) & ((1 << 3) - 1))*4) & 15) == elemSize1()\0"
	.section	.text$_ZN2cv3Mat2atINS_3VecIhLi3EEEEERT_ii,"x"
	.linkonce discard
	.align 2
	.globl	_ZN2cv3Mat2atINS_3VecIhLi3EEEEERT_ii
	.def	_ZN2cv3Mat2atINS_3VecIhLi3EEEEERT_ii;	.scl	2;	.type	32;	.endef
	.seh_proc	_ZN2cv3Mat2atINS_3VecIhLi3EEEEERT_ii
_ZN2cv3Mat2atINS_3VecIhLi3EEEEERT_ii:
.LFB13864:
	.loc 3 894 6
	.cfi_startproc
	pushq	%rbp
	.seh_pushreg	%rbp
	.cfi_def_cfa_offset 16
	.cfi_offset 6, -16
	pushq	%rsi
	.seh_pushreg	%rsi
	.cfi_def_cfa_offset 24
	.cfi_offset 4, -24
	pushq	%rbx
	.seh_pushreg	%rbx
	.cfi_def_cfa_offset 32
	.cfi_offset 3, -32
	subq	$288, %rsp
	.seh_stackalloc	288
	.cfi_def_cfa_offset 320
	leaq	128(%rsp), %rbp
	.seh_setframe	%rbp, 128
	.cfi_def_cfa 6, 192
	.seh_endprologue
	movq	%rcx, 192(%rbp)
	movl	%edx, 200(%rbp)
	movl	%r8d, 208(%rbp)
	.loc 3 896 5
	movq	192(%rbp), %rax
	movl	4(%rax), %eax
	cmpl	$2, %eax
	jle	.L65
	.loc 3 896 5 is_stmt 0 discriminator 1
	leaq	-33(%rbp), %rax
	movq	%rax, %rcx
	call	_ZNSaIcEC1Ev
	leaq	-33(%rbp), %rdx
	leaq	-80(%rbp), %rax
	movq	%rdx, %r8
	leaq	.LC10(%rip), %rdx
	movq	%rax, %rcx
.LEHB5:
	call	_ZNSt7__cxx1112basic_stringIcSt11char_traitsIcESaIcEEC1EPKcRKS3_
.LEHE5:
	.loc 3 896 5 discriminator 3
	leaq	-80(%rbp), %rax
	movl	$896, 32(%rsp)
	leaq	.LC11(%rip), %r9
	leaq	_ZZN2cv3Mat2atINS_3VecIhLi3EEEEERT_iiE8__func__(%rip), %r8
	movq	%rax, %rdx
	movl	$-215, %ecx
.LEHB6:
	call	_ZN2cv5errorEiRKNSt7__cxx1112basic_stringIcSt11char_traitsIcESaIcEEEPKcS9_i
.LEHE6:
.L65:
	.loc 3 897 5 is_stmt 1
	movq	192(%rbp), %rax
	movq	16(%rax), %rax
	testq	%rax, %rax
	jne	.L66
	.loc 3 897 5 is_stmt 0 discriminator 1
	leaq	15(%rbp), %rax
	movq	%rax, %rcx
	call	_ZNSaIcEC1Ev
	leaq	15(%rbp), %rdx
	leaq	-32(%rbp), %rax
	movq	%rdx, %r8
	leaq	.LC12(%rip), %rdx
	movq	%rax, %rcx
.LEHB7:
	call	_ZNSt7__cxx1112basic_stringIcSt11char_traitsIcESaIcEEC1EPKcRKS3_
.LEHE7:
	.loc 3 897 5 discriminator 3
	leaq	-32(%rbp), %rax
	movl	$897, 32(%rsp)
	leaq	.LC11(%rip), %r9
	leaq	_ZZN2cv3Mat2atINS_3VecIhLi3EEEEERT_iiE8__func__(%rip), %r8
	movq	%rax, %rdx
	movl	$-215, %ecx
.LEHB8:
	call	_ZN2cv5errorEiRKNSt7__cxx1112basic_stringIcSt11char_traitsIcESaIcEEEPKcS9_i
.LEHE8:
.L66:
	.loc 3 898 5 is_stmt 1
	movq	192(%rbp), %rax
	movq	64(%rax), %rax
	movl	(%rax), %eax
	movl	%eax, %edx
	movl	200(%rbp), %eax
	cmpl	%eax, %edx
	ja	.L67
	.loc 3 898 5 is_stmt 0 discriminator 1
	leaq	63(%rbp), %rax
	movq	%rax, %rcx
	call	_ZNSaIcEC1Ev
	leaq	63(%rbp), %rdx
	leaq	16(%rbp), %rax
	movq	%rdx, %r8
	leaq	.LC13(%rip), %rdx
	movq	%rax, %rcx
.LEHB9:
	call	_ZNSt7__cxx1112basic_stringIcSt11char_traitsIcESaIcEEC1EPKcRKS3_
.LEHE9:
	.loc 3 898 5 discriminator 3
	leaq	16(%rbp), %rax
	movl	$898, 32(%rsp)
	leaq	.LC11(%rip), %r9
	leaq	_ZZN2cv3Mat2atINS_3VecIhLi3EEEEERT_iiE8__func__(%rip), %r8
	movq	%rax, %rdx
	movl	$-215, %ecx
.LEHB10:
	call	_ZN2cv5errorEiRKNSt7__cxx1112basic_stringIcSt11char_traitsIcESaIcEEEPKcS9_i
.LEHE10:
.L67:
	.loc 3 899 5 is_stmt 1
	movl	208(%rbp), %edx
	movl	%edx, %eax
	addl	%eax, %eax
	addl	%edx, %eax
	movl	%eax, %esi
	movq	192(%rbp), %rax
	movq	64(%rax), %rax
	addq	$4, %rax
	movl	(%rax), %ebx
	movq	192(%rbp), %rcx
	call	_ZNK2cv3Mat8channelsEv
	imull	%ebx, %eax
	cmpl	%eax, %esi
	setb	%al
	movzbl	%al, %eax
	testw	%ax, %ax
	jne	.L68
	.loc 3 899 5 is_stmt 0 discriminator 1
	leaq	111(%rbp), %rax
	movq	%rax, %rcx
	call	_ZNSaIcEC1Ev
	leaq	111(%rbp), %rdx
	leaq	64(%rbp), %rax
	movq	%rdx, %r8
	leaq	.LC14(%rip), %rdx
	movq	%rax, %rcx
.LEHB11:
	call	_ZNSt7__cxx1112basic_stringIcSt11char_traitsIcESaIcEEC1EPKcRKS3_
.LEHE11:
	.loc 3 899 5 discriminator 3
	leaq	64(%rbp), %rax
	movl	$899, 32(%rsp)
	leaq	.LC11(%rip), %r9
	leaq	_ZZN2cv3Mat2atINS_3VecIhLi3EEEEERT_iiE8__func__(%rip), %r8
	movq	%rax, %rdx
	movl	$-215, %ecx
.LEHB12:
	call	_ZN2cv5errorEiRKNSt7__cxx1112basic_stringIcSt11char_traitsIcESaIcEEEPKcS9_i
.LEHE12:
.L68:
	.loc 3 900 5 is_stmt 1
	movq	192(%rbp), %rcx
	call	_ZNK2cv3Mat9elemSize1Ev
	cmpq	$1, %rax
	sete	%al
	movzbl	%al, %eax
	testw	%ax, %ax
	jne	.L69
	.loc 3 900 5 is_stmt 0 discriminator 1
	leaq	159(%rbp), %rax
	movq	%rax, %rcx
	call	_ZNSaIcEC1Ev
	leaq	159(%rbp), %rdx
	leaq	112(%rbp), %rax
	movq	%rdx, %r8
	leaq	.LC15(%rip), %rdx
	movq	%rax, %rcx
.LEHB13:
	call	_ZNSt7__cxx1112basic_stringIcSt11char_traitsIcESaIcEEC1EPKcRKS3_
.LEHE13:
	.loc 3 900 5 discriminator 3
	leaq	112(%rbp), %rax
	movl	$900, 32(%rsp)
	leaq	.LC11(%rip), %r9
	leaq	_ZZN2cv3Mat2atINS_3VecIhLi3EEEEERT_iiE8__func__(%rip), %r8
	movq	%rax, %rdx
	movl	$-215, %ecx
.LEHB14:
	call	_ZN2cv5errorEiRKNSt7__cxx1112basic_stringIcSt11char_traitsIcESaIcEEEPKcS9_i
.LEHE14:
.L69:
	.loc 3 901 20 is_stmt 1
	movq	192(%rbp), %rax
	movq	16(%rax), %rdx
	.loc 3 901 32
	movq	192(%rbp), %rax
	movq	72(%rax), %rax
	.loc 3 901 37
	movq	(%rax), %rcx
	movl	200(%rbp), %eax
	cltq
	imulq	%rcx, %rax
	.loc 3 901 25
	leaq	(%rdx,%rax), %rcx
	.loc 3 901 43
	movl	208(%rbp), %eax
	movslq	%eax, %rdx
	movq	%rdx, %rax
	addq	%rax, %rax
	addq	%rdx, %rax
	.loc 3 901 46
	addq	%rcx, %rax
	jmp	.L91
.L82:
	movq	%rax, %rbx
	.loc 3 896 5
	leaq	-80(%rbp), %rax
	movq	%rax, %rcx
	call	_ZNSt7__cxx1112basic_stringIcSt11char_traitsIcESaIcEED1Ev
	jmp	.L72
.L81:
	movq	%rax, %rbx
.L72:
	.loc 3 896 5 is_stmt 0 discriminator 2
	leaq	-33(%rbp), %rax
	movq	%rax, %rcx
	call	_ZNSaIcED1Ev
	movq	%rbx, %rax
	movq	%rax, %rcx
.LEHB15:
	call	_Unwind_Resume
.L84:
	movq	%rax, %rbx
	.loc 3 897 5 is_stmt 1
	leaq	-32(%rbp), %rax
	movq	%rax, %rcx
	call	_ZNSt7__cxx1112basic_stringIcSt11char_traitsIcESaIcEED1Ev
	jmp	.L74
.L83:
	movq	%rax, %rbx
.L74:
	.loc 3 897 5 is_stmt 0 discriminator 2
	leaq	15(%rbp), %rax
	movq	%rax, %rcx
	call	_ZNSaIcED1Ev
	movq	%rbx, %rax
	movq	%rax, %rcx
	call	_Unwind_Resume
.L86:
	movq	%rax, %rbx
	.loc 3 898 5 is_stmt 1
	leaq	16(%rbp), %rax
	movq	%rax, %rcx
	call	_ZNSt7__cxx1112basic_stringIcSt11char_traitsIcESaIcEED1Ev
	jmp	.L76
.L85:
	movq	%rax, %rbx
.L76:
	.loc 3 898 5 is_stmt 0 discriminator 2
	leaq	63(%rbp), %rax
	movq	%rax, %rcx
	call	_ZNSaIcED1Ev
	movq	%rbx, %rax
	movq	%rax, %rcx
	call	_Unwind_Resume
.L88:
	movq	%rax, %rbx
	.loc 3 899 5 is_stmt 1
	leaq	64(%rbp), %rax
	movq	%rax, %rcx
	call	_ZNSt7__cxx1112basic_stringIcSt11char_traitsIcESaIcEED1Ev
	jmp	.L78
.L87:
	movq	%rax, %rbx
.L78:
	.loc 3 899 5 is_stmt 0 discriminator 2
	leaq	111(%rbp), %rax
	movq	%rax, %rcx
	call	_ZNSaIcED1Ev
	movq	%rbx, %rax
	movq	%rax, %rcx
	call	_Unwind_Resume
.L90:
	movq	%rax, %rbx
	.loc 3 900 5 is_stmt 1
	leaq	112(%rbp), %rax
	movq	%rax, %rcx
	call	_ZNSt7__cxx1112basic_stringIcSt11char_traitsIcESaIcEED1Ev
	jmp	.L80
.L89:
	movq	%rax, %rbx
.L80:
	.loc 3 900 5 is_stmt 0 discriminator 2
	leaq	159(%rbp), %rax
	movq	%rax, %rcx
	call	_ZNSaIcED1Ev
	movq	%rbx, %rax
	movq	%rax, %rcx
	call	_Unwind_Resume
.LEHE15:
.L91:
	.loc 3 902 1 is_stmt 1
	addq	$288, %rsp
	popq	%rbx
	.cfi_restore 3
	popq	%rsi
	.cfi_restore 4
	popq	%rbp
	.cfi_restore 6
	.cfi_def_cfa 7, -264
	ret
	.cfi_endproc
.LFE13864:
	.seh_handler	__gxx_personality_seh0, @unwind, @except
	.seh_handlerdata
.LLSDA13864:
	.byte	0xff
	.byte	0xff
	.byte	0x1
	.uleb128 .LLSDACSE13864-.LLSDACSB13864
.LLSDACSB13864:
	.uleb128 .LEHB5-.LFB13864
	.uleb128 .LEHE5-.LEHB5
	.uleb128 .L81-.LFB13864
	.uleb128 0
	.uleb128 .LEHB6-.LFB13864
	.uleb128 .LEHE6-.LEHB6
	.uleb128 .L82-.LFB13864
	.uleb128 0
	.uleb128 .LEHB7-.LFB13864
	.uleb128 .LEHE7-.LEHB7
	.uleb128 .L83-.LFB13864
	.uleb128 0
	.uleb128 .LEHB8-.LFB13864
	.uleb128 .LEHE8-.LEHB8
	.uleb128 .L84-.LFB13864
	.uleb128 0
	.uleb128 .LEHB9-.LFB13864
	.uleb128 .LEHE9-.LEHB9
	.uleb128 .L85-.LFB13864
	.uleb128 0
	.uleb128 .LEHB10-.LFB13864
	.uleb128 .LEHE10-.LEHB10
	.uleb128 .L86-.LFB13864
	.uleb128 0
	.uleb128 .LEHB11-.LFB13864
	.uleb128 .LEHE11-.LEHB11
	.uleb128 .L87-.LFB13864
	.uleb128 0
	.uleb128 .LEHB12-.LFB13864
	.uleb128 .LEHE12-.LEHB12
	.uleb128 .L88-.LFB13864
	.uleb128 0
	.uleb128 .LEHB13-.LFB13864
	.uleb128 .LEHE13-.LEHB13
	.uleb128 .L89-.LFB13864
	.uleb128 0
	.uleb128 .LEHB14-.LFB13864
	.uleb128 .LEHE14-.LEHB14
	.uleb128 .L90-.LFB13864
	.uleb128 0
	.uleb128 .LEHB15-.LFB13864
	.uleb128 .LEHE15-.LEHB15
	.uleb128 0
	.uleb128 0
.LLSDACSE13864:
	.section	.text$_ZN2cv3Mat2atINS_3VecIhLi3EEEEERT_ii,"x"
	.linkonce discard
	.seh_endproc
	.section .rdata,"dr"
.LC16:
	.ascii "(unsigned)i < (unsigned)cn\0"
	.align 8
.LC17:
	.ascii "D:\\programming\\libraries\\opencv-4.6.0\\opencv-build-release-freetype\\install\\include/opencv2/core/matx.hpp\0"
	.section	.text$_ZN2cv3VecIhLi3EEixEi,"x"
	.linkonce discard
	.align 2
	.globl	_ZN2cv3VecIhLi3EEixEi
	.def	_ZN2cv3VecIhLi3EEixEi;	.scl	2;	.type	32;	.endef
	.seh_proc	_ZN2cv3VecIhLi3EEixEi
_ZN2cv3VecIhLi3EEixEi:
.LFB13865:
	.file 8 "D:/programming/libraries/opencv-4.6.0/opencv-build-release-freetype/install/include/opencv2/core/matx.hpp"
	.loc 8 1147 6
	.cfi_startproc
	pushq	%rbp
	.seh_pushreg	%rbp
	.cfi_def_cfa_offset 16
	.cfi_offset 6, -16
	pushq	%rbx
	.seh_pushreg	%rbx
	.cfi_def_cfa_offset 24
	.cfi_offset 3, -24
	subq	$104, %rsp
	.seh_stackalloc	104
	.cfi_def_cfa_offset 128
	leaq	128(%rsp), %rbp
	.seh_setframe	%rbp, 128
	.cfi_def_cfa 6, 0
	.seh_endprologue
	movq	%rcx, 0(%rbp)
	movl	%edx, 8(%rbp)
	.loc 8 1149 5
	movl	8(%rbp), %eax
	cmpl	$2, %eax
	jbe	.L93
	.loc 8 1149 5 is_stmt 0 discriminator 1
	leaq	-33(%rbp), %rax
	movq	%rax, %rcx
	call	_ZNSaIcEC1Ev
	leaq	-33(%rbp), %rdx
	leaq	-80(%rbp), %rax
	movq	%rdx, %r8
	leaq	.LC16(%rip), %rdx
	movq	%rax, %rcx
.LEHB16:
	call	_ZNSt7__cxx1112basic_stringIcSt11char_traitsIcESaIcEEC1EPKcRKS3_
.LEHE16:
	.loc 8 1149 5 discriminator 3
	leaq	-80(%rbp), %rax
	movl	$1149, 32(%rsp)
	leaq	.LC17(%rip), %r9
	leaq	_ZZN2cv3VecIhLi3EEixEiE8__func__(%rip), %r8
	movq	%rax, %rdx
	movl	$-215, %ecx
.LEHB17:
	call	_ZN2cv5errorEiRKNSt7__cxx1112basic_stringIcSt11char_traitsIcESaIcEEEPKcS9_i
.LEHE17:
.L93:
	.loc 8 1150 23 is_stmt 1
	movl	8(%rbp), %eax
	cltq
	movq	0(%rbp), %rdx
	addq	%rdx, %rax
	jmp	.L99
.L98:
	movq	%rax, %rbx
	.loc 8 1149 5
	leaq	-80(%rbp), %rax
	movq	%rax, %rcx
	call	_ZNSt7__cxx1112basic_stringIcSt11char_traitsIcESaIcEED1Ev
	jmp	.L96
.L97:
	movq	%rax, %rbx
.L96:
	.loc 8 1149 5 is_stmt 0 discriminator 2
	leaq	-33(%rbp), %rax
	movq	%rax, %rcx
	call	_ZNSaIcED1Ev
	movq	%rbx, %rax
	movq	%rax, %rcx
.LEHB18:
	call	_Unwind_Resume
.LEHE18:
.L99:
	.loc 8 1151 1 is_stmt 1
	addq	$104, %rsp
	popq	%rbx
	.cfi_restore 3
	popq	%rbp
	.cfi_restore 6
	.cfi_def_cfa 7, -88
	ret
	.cfi_endproc
.LFE13865:
	.seh_handler	__gxx_personality_seh0, @unwind, @except
	.seh_handlerdata
.LLSDA13865:
	.byte	0xff
	.byte	0xff
	.byte	0x1
	.uleb128 .LLSDACSE13865-.LLSDACSB13865
.LLSDACSB13865:
	.uleb128 .LEHB16-.LFB13865
	.uleb128 .LEHE16-.LEHB16
	.uleb128 .L97-.LFB13865
	.uleb128 0
	.uleb128 .LEHB17-.LFB13865
	.uleb128 .LEHE17-.LEHB17
	.uleb128 .L98-.LFB13865
	.uleb128 0
	.uleb128 .LEHB18-.LFB13865
	.uleb128 .LEHE18-.LEHB18
	.uleb128 0
	.uleb128 0
.LLSDACSE13865:
	.section	.text$_ZN2cv3VecIhLi3EEixEi,"x"
	.linkonce discard
	.seh_endproc
	.text
	.def	__tcf_9;	.scl	3;	.type	32;	.endef
	.seh_proc	__tcf_9
__tcf_9:
.LFB17492:
	.file 9 "C:/Program Files/mingw64/lib/gcc/x86_64-w64-mingw32/8.1.0/include/c++/iostream"
	.loc 9 74 25
	.cfi_startproc
	pushq	%rbp
	.seh_pushreg	%rbp
	.cfi_def_cfa_offset 16
	.cfi_offset 6, -16
	movq	%rsp, %rbp
	.seh_setframe	%rbp, 0
	.cfi_def_cfa_register 6
	subq	$32, %rsp
	.seh_stackalloc	32
	.seh_endprologue
	.loc 9 74 25
	leaq	_ZStL8__ioinit(%rip), %rcx
	call	_ZNSt8ios_base4InitD1Ev
	nop
	addq	$32, %rsp
	popq	%rbp
	.cfi_restore 6
	.cfi_def_cfa 7, 8
	ret
	.cfi_endproc
.LFE17492:
	.seh_endproc
	.def	_Z41__static_initialization_and_destruction_0ii;	.scl	3;	.type	32;	.endef
	.seh_proc	_Z41__static_initialization_and_destruction_0ii
_Z41__static_initialization_and_destruction_0ii:
.LFB17491:
	.loc 4 126 1
	.cfi_startproc
	pushq	%rbp
	.seh_pushreg	%rbp
	.cfi_def_cfa_offset 16
	.cfi_offset 6, -16
	movq	%rsp, %rbp
	.seh_setframe	%rbp, 0
	.cfi_def_cfa_register 6
	subq	$48, %rsp
	.seh_stackalloc	48
	.seh_endprologue
	movl	%ecx, 16(%rbp)
	movl	%edx, 24(%rbp)
	.loc 4 126 1
	cmpl	$1, 16(%rbp)
	jne	.L107
	.loc 4 126 1 is_stmt 0 discriminator 1
	cmpl	$65535, 24(%rbp)
	jne	.L107
	.loc 9 74 25 is_stmt 1
	leaq	_ZStL8__ioinit(%rip), %rcx
	call	_ZNSt8ios_base4InitC1Ev
	leaq	__tcf_9(%rip), %rcx
	call	atexit
	.file 10 "headers/include.h"
	.loc 10 34 17
	vmovss	SCALE(%rip), %xmm0
	vmovss	.LC18(%rip), %xmm1
	vxorps	%xmm1, %xmm0, %xmm0
	.loc 10 34 24
	vmovss	.LC19(%rip), %xmm1
	vmulss	%xmm1, %xmm0, %xmm0
	.loc 10 34 35
	vmovss	.LC20(%rip), %xmm1
	vdivss	%xmm1, %xmm0, %xmm0
	.loc 10 34 7
	vmovss	%xmm0, OFFSETY(%rip)
	movl	$1, -16(%rbp)
.LBB134:
.LBB135:
	.loc 5 1320 24
	vpbroadcastd	-16(%rbp), %ymm0
.LBE135:
.LBE134:
	.loc 4 9 15
	vmovdqa	%ymm0, _ZL6ONESEQ(%rip)
	.loc 4 10 14
	vmovss	SCALE(%rip), %xmm0
	vmovss	%xmm0, -12(%rbp)
.LBB136:
.LBB137:
	.loc 5 1313 25
	vbroadcastss	-12(%rbp), %ymm0
.LBE137:
.LBE136:
	.loc 4 10 14
	vmovaps	%ymm0, _ZL8SCALESEQ(%rip)
	vmovss	.LC20(%rip), %xmm0
	vmovss	%xmm0, -8(%rbp)
.LBB138:
.LBB139:
	.loc 5 1313 25
	vbroadcastss	-8(%rbp), %ymm0
.LBE139:
.LBE138:
	.loc 4 11 14
	vmovaps	%ymm0, _ZL6TWOSEQ(%rip)
	vmovss	.LC21(%rip), %xmm0
	vmovss	%xmm0, -4(%rbp)
.LBB140:
.LBB141:
	.loc 5 1313 25
	vbroadcastss	-4(%rbp), %ymm0
.LBE141:
.LBE140:
	.loc 4 12 14
	vmovaps	%ymm0, _ZL12INFRADPOSSEQ(%rip)
.L107:
	.loc 4 126 1
	nop
	addq	$48, %rsp
	popq	%rbp
	.cfi_restore 6
	.cfi_def_cfa 7, 8
	ret
	.cfi_endproc
.LFE17491:
	.seh_endproc
	.def	_GLOBAL__sub_I_SCALE;	.scl	3;	.type	32;	.endef
	.seh_proc	_GLOBAL__sub_I_SCALE
_GLOBAL__sub_I_SCALE:
.LFB17864:
	.loc 4 126 1
	.cfi_startproc
	pushq	%rbp
	.seh_pushreg	%rbp
	.cfi_def_cfa_offset 16
	.cfi_offset 6, -16
	movq	%rsp, %rbp
	.seh_setframe	%rbp, 0
	.cfi_def_cfa_register 6
	subq	$32, %rsp
	.seh_stackalloc	32
	.seh_endprologue
	.loc 4 126 1
	movl	$65535, %edx
	movl	$1, %ecx
	call	_Z41__static_initialization_and_destruction_0ii
	nop
	addq	$32, %rsp
	popq	%rbp
	.cfi_restore 6
	.cfi_def_cfa 7, 8
	ret
	.cfi_endproc
.LFE17864:
	.seh_endproc
	.section	.ctors,"w"
	.align 8
	.quad	_GLOBAL__sub_I_SCALE
	.section .rdata,"dr"
_ZZN2cv3Mat2atINS_3VecIhLi3EEEEERT_iiE8__func__:
	.ascii "at\0"
	.align 8
_ZZN2cv3VecIhLi3EEixEiE8__func__:
	.ascii "operator[]\0"
	.align 4
.LC1:
	.long	1143930880
	.align 4
.LC2:
	.long	1045220557
	.align 4
.LC3:
	.long	1132462080
	.align 8
.LC4:
	.long	0
	.long	1083129856
	.align 8
.LC5:
	.long	0
	.long	1072693248
	.align 16
.LC18:
	.long	-2147483648
	.long	0
	.long	0
	.long	0
	.align 4
.LC19:
	.long	1143996416
	.align 4
.LC20:
	.long	1073741824
	.align 4
.LC21:
	.long	1092616192
	.text
.Letext0:
	.file 11 "C:/Program Files/mingw64/x86_64-w64-mingw32/include/crtdefs.h"
	.file 12 "C:/Program Files/mingw64/x86_64-w64-mingw32/include/locale.h"
	.file 13 "C:/Program Files/mingw64/lib/gcc/x86_64-w64-mingw32/8.1.0/include/c++/bits/basic_string.h"
	.file 14 "C:/Program Files/mingw64/lib/gcc/x86_64-w64-mingw32/8.1.0/include/c++/bits/basic_string.tcc"
	.file 15 "C:/Program Files/mingw64/lib/gcc/x86_64-w64-mingw32/8.1.0/include/c++/bits/stringfwd.h"
	.file 16 "C:/Program Files/mingw64/lib/gcc/x86_64-w64-mingw32/8.1.0/include/c++/cstdlib"
	.file 17 "C:/Program Files/mingw64/lib/gcc/x86_64-w64-mingw32/8.1.0/include/c++/bits/std_abs.h"
	.file 18 "C:/Program Files/mingw64/lib/gcc/x86_64-w64-mingw32/8.1.0/include/c++/cstddef"
	.file 19 "C:/Program Files/mingw64/lib/gcc/x86_64-w64-mingw32/8.1.0/include/c++/cstdint"
	.file 20 "C:/Program Files/mingw64/lib/gcc/x86_64-w64-mingw32/8.1.0/include/c++/type_traits"
	.file 21 "C:/Program Files/mingw64/lib/gcc/x86_64-w64-mingw32/8.1.0/include/c++/bits/stl_pair.h"
	.file 22 "C:/Program Files/mingw64/lib/gcc/x86_64-w64-mingw32/8.1.0/include/c++/new"
	.file 23 "C:/Program Files/mingw64/lib/gcc/x86_64-w64-mingw32/8.1.0/include/c++/bits/exception_ptr.h"
	.file 24 "C:/Program Files/mingw64/lib/gcc/x86_64-w64-mingw32/8.1.0/include/c++/x86_64-w64-mingw32/bits/c++config.h"
	.file 25 "C:/Program Files/mingw64/lib/gcc/x86_64-w64-mingw32/8.1.0/include/c++/bits/cpp_type_traits.h"
	.file 26 "C:/Program Files/mingw64/lib/gcc/x86_64-w64-mingw32/8.1.0/include/c++/bits/stl_iterator_base_types.h"
	.file 27 "C:/Program Files/mingw64/lib/gcc/x86_64-w64-mingw32/8.1.0/include/c++/debug/debug.h"
	.file 28 "C:/Program Files/mingw64/lib/gcc/x86_64-w64-mingw32/8.1.0/include/c++/cwchar"
	.file 29 "C:/Program Files/mingw64/lib/gcc/x86_64-w64-mingw32/8.1.0/include/c++/bits/char_traits.h"
	.file 30 "C:/Program Files/mingw64/lib/gcc/x86_64-w64-mingw32/8.1.0/include/c++/bits/allocator.h"
	.file 31 "C:/Program Files/mingw64/lib/gcc/x86_64-w64-mingw32/8.1.0/include/c++/clocale"
	.file 32 "C:/Program Files/mingw64/lib/gcc/x86_64-w64-mingw32/8.1.0/include/c++/cstdio"
	.file 33 "C:/Program Files/mingw64/lib/gcc/x86_64-w64-mingw32/8.1.0/include/c++/bits/alloc_traits.h"
	.file 34 "C:/Program Files/mingw64/lib/gcc/x86_64-w64-mingw32/8.1.0/include/c++/initializer_list"
	.file 35 "C:/Program Files/mingw64/lib/gcc/x86_64-w64-mingw32/8.1.0/include/c++/complex"
	.file 36 "C:/Program Files/mingw64/lib/gcc/x86_64-w64-mingw32/8.1.0/include/c++/chrono"
	.file 37 "C:/Program Files/mingw64/lib/gcc/x86_64-w64-mingw32/8.1.0/include/c++/bits/algorithmfwd.h"
	.file 38 "C:/Program Files/mingw64/lib/gcc/x86_64-w64-mingw32/8.1.0/include/c++/cstring"
	.file 39 "C:/Program Files/mingw64/lib/gcc/x86_64-w64-mingw32/8.1.0/include/c++/bits/uses_allocator.h"
	.file 40 "C:/Program Files/mingw64/lib/gcc/x86_64-w64-mingw32/8.1.0/include/c++/tuple"
	.file 41 "C:/Program Files/mingw64/lib/gcc/x86_64-w64-mingw32/8.1.0/include/c++/bits/shared_ptr_base.h"
	.file 42 "C:/Program Files/mingw64/lib/gcc/x86_64-w64-mingw32/8.1.0/include/c++/bits/stl_bvector.h"
	.file 43 "C:/Program Files/mingw64/lib/gcc/x86_64-w64-mingw32/8.1.0/include/c++/bits/stl_iterator.h"
	.file 44 "C:/Program Files/mingw64/lib/gcc/x86_64-w64-mingw32/8.1.0/include/c++/bits/stl_vector.h"
	.file 45 "C:/Program Files/mingw64/lib/gcc/x86_64-w64-mingw32/8.1.0/include/c++/bits/vector.tcc"
	.file 46 "C:/Program Files/mingw64/lib/gcc/x86_64-w64-mingw32/8.1.0/include/c++/bits/shared_ptr.h"
	.file 47 "C:/Program Files/mingw64/lib/gcc/x86_64-w64-mingw32/8.1.0/include/c++/bits/ios_base.h"
	.file 48 "C:/Program Files/mingw64/lib/gcc/x86_64-w64-mingw32/8.1.0/include/c++/cwctype"
	.file 49 "C:/Program Files/mingw64/lib/gcc/x86_64-w64-mingw32/8.1.0/include/c++/functional"
	.file 50 "C:/Program Files/mingw64/lib/gcc/x86_64-w64-mingw32/8.1.0/include/c++/ctime"
	.file 51 "C:/Program Files/mingw64/lib/gcc/x86_64-w64-mingw32/8.1.0/include/c++/ratio"
	.file 52 "C:/Program Files/mingw64/lib/gcc/x86_64-w64-mingw32/8.1.0/include/c++/bits/std_mutex.h"
	.file 53 "C:/Program Files/mingw64/lib/gcc/x86_64-w64-mingw32/8.1.0/include/c++/mutex"
	.file 54 "C:/Program Files/mingw64/lib/gcc/x86_64-w64-mingw32/8.1.0/include/c++/bits/stl_tree.h"
	.file 55 "C:/Program Files/mingw64/lib/gcc/x86_64-w64-mingw32/8.1.0/include/c++/bits/stl_function.h"
	.file 56 "C:/Program Files/mingw64/lib/gcc/x86_64-w64-mingw32/8.1.0/include/c++/iosfwd"
	.file 57 "C:/Program Files/mingw64/lib/gcc/x86_64-w64-mingw32/8.1.0/include/c++/bits/stl_map.h"
	.file 58 "C:/Program Files/mingw64/lib/gcc/x86_64-w64-mingw32/8.1.0/include/c++/bits/uniform_int_dist.h"
	.file 59 "C:/Program Files/mingw64/lib/gcc/x86_64-w64-mingw32/8.1.0/include/c++/bits/stl_iterator_base_funcs.h"
	.file 60 "C:/Program Files/mingw64/lib/gcc/x86_64-w64-mingw32/8.1.0/include/c++/bits/predefined_ops.h"
	.file 61 "C:/Program Files/mingw64/lib/gcc/x86_64-w64-mingw32/8.1.0/include/c++/ext/new_allocator.h"
	.file 62 "C:/Program Files/mingw64/lib/gcc/x86_64-w64-mingw32/8.1.0/include/c++/ext/numeric_traits.h"
	.file 63 "C:/Program Files/mingw64/lib/gcc/x86_64-w64-mingw32/8.1.0/include/c++/ext/alloc_traits.h"
	.file 64 "C:/Program Files/mingw64/lib/gcc/x86_64-w64-mingw32/8.1.0/include/c++/ext/concurrence.h"
	.file 65 "C:/Program Files/mingw64/lib/gcc/x86_64-w64-mingw32/8.1.0/include/c++/ext/aligned_buffer.h"
	.file 66 "C:/Program Files/mingw64/lib/gcc/x86_64-w64-mingw32/8.1.0/include/c++/ext/type_traits.h"
	.file 67 "C:/Program Files/mingw64/x86_64-w64-mingw32/include/stdlib.h"
	.file 68 "C:/Program Files/mingw64/x86_64-w64-mingw32/include/malloc.h"
	.file 69 "C:/Program Files/mingw64/lib/gcc/x86_64-w64-mingw32/8.1.0/include/c++/stdlib.h"
	.file 70 "C:/Program Files/mingw64/lib/gcc/x86_64-w64-mingw32/8.1.0/include/stddef.h"
	.file 71 "C:/Program Files/mingw64/x86_64-w64-mingw32/include/stdint.h"
	.file 72 "C:/Program Files/mingw64/x86_64-w64-mingw32/include/time.h"
	.file 73 "D:/programming/libraries/opencv-4.6.0/opencv-build-release-freetype/install/include/opencv2/core/hal/interface.h"
	.file 74 "C:/Program Files/mingw64/x86_64-w64-mingw32/include/wchar.h"
	.file 75 "C:/Program Files/mingw64/x86_64-w64-mingw32/include/swprintf.inl"
	.file 76 "C:/Program Files/mingw64/x86_64-w64-mingw32/include/ctype.h"
	.file 77 "C:/Program Files/mingw64/x86_64-w64-mingw32/include/process.h"
	.file 78 "C:/Program Files/mingw64/x86_64-w64-mingw32/include/pthread.h"
	.file 79 "C:/Program Files/mingw64/lib/gcc/x86_64-w64-mingw32/8.1.0/include/c++/x86_64-w64-mingw32/bits/atomic_word.h"
	.file 80 "D:/programming/libraries/opencv-4.6.0/opencv-build-release-freetype/install/include/opencv2/core/cvdef.h"
	.file 81 "D:/programming/libraries/opencv-4.6.0/opencv-build-release-freetype/install/include/opencv2/core/cvstd.hpp"
	.file 82 "D:/programming/libraries/opencv-4.6.0/opencv-build-release-freetype/install/include/opencv2/core/cvstd_wrapper.hpp"
	.file 83 "D:/programming/libraries/opencv-4.6.0/opencv-build-release-freetype/install/include/opencv2/core/base.hpp"
	.file 84 "D:/programming/libraries/opencv-4.6.0/opencv-build-release-freetype/install/include/opencv2/core/check.hpp"
	.file 85 "D:/programming/libraries/opencv-4.6.0/opencv-build-release-freetype/install/include/opencv2/core/traits.hpp"
	.file 86 "D:/programming/libraries/opencv-4.6.0/opencv-build-release-freetype/install/include/opencv2/core/mat.hpp"
	.file 87 "D:/programming/libraries/opencv-4.6.0/opencv-build-release-freetype/install/include/opencv2/core/cuda.hpp"
	.file 88 "D:/programming/libraries/opencv-4.6.0/opencv-build-release-freetype/install/include/opencv2/flann/miniflann.hpp"
	.file 89 "D:/programming/libraries/opencv-4.6.0/opencv-build-release-freetype/install/include/opencv2/flann.hpp"
	.file 90 "D:/programming/libraries/opencv-4.6.0/opencv-build-release-freetype/install/include/opencv2/calib3d.hpp"
	.file 91 "D:/programming/libraries/opencv-4.6.0/opencv-build-release-freetype/install/include/opencv2/dnn/version.hpp"
	.file 92 "D:/programming/libraries/opencv-4.6.0/opencv-build-release-freetype/install/include/opencv2/imgproc/segmentation.hpp"
	.file 93 "D:/programming/libraries/opencv-4.6.0/opencv-build-release-freetype/install/include/opencv2/ml.hpp"
	.file 94 "D:/programming/libraries/opencv-4.6.0/opencv-build-release-freetype/install/include/opencv2/core/operations.hpp"
	.file 95 "C:/Program Files/mingw64/x86_64-w64-mingw32/include/string.h"
	.file 96 "C:/Program Files/mingw64/x86_64-w64-mingw32/include/math.h"
	.file 97 "C:/Program Files/mingw64/x86_64-w64-mingw32/include/wctype.h"
	.file 98 "D:/programming/libraries/opencv-4.6.0/opencv-build-release-freetype/install/include/opencv2/flann/defines.h"
	.file 99 "D:/programming/libraries/opencv-4.6.0/opencv-build-release-freetype/install/include/opencv2/flann/any.h"
	.file 100 "D:/programming/libraries/opencv-4.6.0/opencv-build-release-freetype/install/include/opencv2/flann/dist.h"
	.file 101 "D:/programming/libraries/opencv-4.6.0/opencv-build-release-freetype/install/include/opencv2/flann/allocator.h"
	.file 102 "D:/programming/libraries/opencv-4.6.0/opencv-build-release-freetype/install/include/opencv2/flann/lsh_table.h"
	.file 103 "D:/programming/libraries/opencv-4.6.0/opencv-build-release-freetype/install/include/opencv2/flann/params.h"
	.file 104 "C:/Program Files/mingw64/lib/gcc/x86_64-w64-mingw32/8.1.0/include/c++/math.h"
	.file 105 "<built-in>"